#include <math.h>
#include <stdio.h>
#include <stdlib.h>
#include <string.h>

int main()
{
	struct student{
		char number[20];
		char name[20];
		char sex;
		int age;
		float score;
		char address[20];
		struct student *fomer;
		struct student *next;
	};
	struct student *head,*p,*wei;
	int i,j;
	head=(struct student *)malloc(sizeof(struct student));
	p=head;
	p->fomer=NULL;
	if (p==NULL)
		{
			printf("fail!!!");
			exit(-1);
		}
	scanf("%s%s %c %d%f%s",&p->number,&p->name,&p->sex,&p->age,&p->score,&p->address);
	for (i=1;i<=1000;i++)
	{
		p->next=(struct student *)malloc(sizeof(struct student));
		p->next->fomer=p;
		p=p->next;
		scanf("%s%s %c %d%g%s",&p->number,&p->name,&p->sex,&p->age,&p->score,&p->address);
		//printf("%s %s %c %d %g %seeererrtttre\n",p->fomer->number,p->fomer->name,p->fomer->sex,p->fomer->age,p->fomer->score,p->fomer->address);
		if (*p->number=='e')
		{
			p->fomer->next=NULL;
			wei=p->fomer;
			//printf("%s %s %c %d %g %s\n",wei->number,wei->name,wei->sex,wei->age,wei->score,wei->address);
			break;
		}
	}
	//printf("%s %s %c %d %g %s\n",wei->number,wei->name,wei->sex,wei->age,wei->score,wei->address);
	p=wei;
	for (;p!=NULL;)
	{
	   printf("%s %s %c %d %g %s\n",p->number,p->name,p->sex,p->age,p->score,p->address);
	   p=p->fomer;
	}
	

}