; ModuleID = '31/1511.c'
source_filename = "31/1511.c"
target datalayout = "e-m:e-p270:32:32-p271:32:32-p272:64:64-i64:64-f80:128-n8:16:32:64-S128"
target triple = "x86_64-pc-linux-gnu"

%struct.student = type { [20 x i8], [20 x i8], i8, i32, float, [20 x i8], %struct.student*, %struct.student* }

@.str = private unnamed_addr constant [8 x i8] c"fail!!!\00", align 1
@.str.1 = private unnamed_addr constant [15 x i8] c"%s%s %c %d%f%s\00", align 1
@.str.2 = private unnamed_addr constant [15 x i8] c"%s%s %c %d%g%s\00", align 1
@.str.3 = private unnamed_addr constant [19 x i8] c"%s %s %c %d %g %s\0A\00", align 1

; Function Attrs: noinline nounwind uwtable
define dso_local i32 @main() #0 {
  %1 = alloca i32, align 4
  %2 = alloca %struct.student*, align 8
  %3 = alloca %struct.student*, align 8
  %4 = alloca %struct.student*, align 8
  %5 = alloca i32, align 4
  %6 = alloca i32, align 4
  store i32 0, i32* %1, align 4
  %7 = call noalias i8* @malloc(i64 88) #4
  %8 = bitcast i8* %7 to %struct.student*
  store %struct.student* %8, %struct.student** %2, align 8
  %9 = load %struct.student*, %struct.student** %2, align 8
  store %struct.student* %9, %struct.student** %3, align 8
  %10 = load %struct.student*, %struct.student** %3, align 8
  %11 = getelementptr inbounds %struct.student, %struct.student* %10, i32 0, i32 6
  store %struct.student* null, %struct.student** %11, align 8
  %12 = load %struct.student*, %struct.student** %3, align 8
  %13 = icmp eq %struct.student* %12, null
  br i1 %13, label %14, label %16

14:                                               ; preds = %0
  %15 = call i32 (i8*, ...) @printf(i8* getelementptr inbounds ([8 x i8], [8 x i8]* @.str, i64 0, i64 0))
  call void @exit(i32 -1) #5
  unreachable

16:                                               ; preds = %0
  %17 = load %struct.student*, %struct.student** %3, align 8
  %18 = getelementptr inbounds %struct.student, %struct.student* %17, i32 0, i32 0
  %19 = load %struct.student*, %struct.student** %3, align 8
  %20 = getelementptr inbounds %struct.student, %struct.student* %19, i32 0, i32 1
  %21 = load %struct.student*, %struct.student** %3, align 8
  %22 = getelementptr inbounds %struct.student, %struct.student* %21, i32 0, i32 2
  %23 = load %struct.student*, %struct.student** %3, align 8
  %24 = getelementptr inbounds %struct.student, %struct.student* %23, i32 0, i32 3
  %25 = load %struct.student*, %struct.student** %3, align 8
  %26 = getelementptr inbounds %struct.student, %struct.student* %25, i32 0, i32 4
  %27 = load %struct.student*, %struct.student** %3, align 8
  %28 = getelementptr inbounds %struct.student, %struct.student* %27, i32 0, i32 5
  %29 = call i32 (i8*, ...) @__isoc99_scanf(i8* getelementptr inbounds ([15 x i8], [15 x i8]* @.str.1, i64 0, i64 0), [20 x i8]* %18, [20 x i8]* %20, i8* %22, i32* %24, float* %26, [20 x i8]* %28)
  store i32 1, i32* %5, align 4
  br label %30

30:                                               ; preds = %74, %16
  %31 = load i32, i32* %5, align 4
  %32 = icmp sle i32 %31, 1000
  br i1 %32, label %33, label %77

33:                                               ; preds = %30
  %34 = call noalias i8* @malloc(i64 88) #4
  %35 = bitcast i8* %34 to %struct.student*
  %36 = load %struct.student*, %struct.student** %3, align 8
  %37 = getelementptr inbounds %struct.student, %struct.student* %36, i32 0, i32 7
  store %struct.student* %35, %struct.student** %37, align 8
  %38 = load %struct.student*, %struct.student** %3, align 8
  %39 = load %struct.student*, %struct.student** %3, align 8
  %40 = getelementptr inbounds %struct.student, %struct.student* %39, i32 0, i32 7
  %41 = load %struct.student*, %struct.student** %40, align 8
  %42 = getelementptr inbounds %struct.student, %struct.student* %41, i32 0, i32 6
  store %struct.student* %38, %struct.student** %42, align 8
  %43 = load %struct.student*, %struct.student** %3, align 8
  %44 = getelementptr inbounds %struct.student, %struct.student* %43, i32 0, i32 7
  %45 = load %struct.student*, %struct.student** %44, align 8
  store %struct.student* %45, %struct.student** %3, align 8
  %46 = load %struct.student*, %struct.student** %3, align 8
  %47 = getelementptr inbounds %struct.student, %struct.student* %46, i32 0, i32 0
  %48 = load %struct.student*, %struct.student** %3, align 8
  %49 = getelementptr inbounds %struct.student, %struct.student* %48, i32 0, i32 1
  %50 = load %struct.student*, %struct.student** %3, align 8
  %51 = getelementptr inbounds %struct.student, %struct.student* %50, i32 0, i32 2
  %52 = load %struct.student*, %struct.student** %3, align 8
  %53 = getelementptr inbounds %struct.student, %struct.student* %52, i32 0, i32 3
  %54 = load %struct.student*, %struct.student** %3, align 8
  %55 = getelementptr inbounds %struct.student, %struct.student* %54, i32 0, i32 4
  %56 = load %struct.student*, %struct.student** %3, align 8
  %57 = getelementptr inbounds %struct.student, %struct.student* %56, i32 0, i32 5
  %58 = call i32 (i8*, ...) @__isoc99_scanf(i8* getelementptr inbounds ([15 x i8], [15 x i8]* @.str.2, i64 0, i64 0), [20 x i8]* %47, [20 x i8]* %49, i8* %51, i32* %53, float* %55, [20 x i8]* %57)
  %59 = load %struct.student*, %struct.student** %3, align 8
  %60 = getelementptr inbounds %struct.student, %struct.student* %59, i32 0, i32 0
  %61 = getelementptr inbounds [20 x i8], [20 x i8]* %60, i64 0, i64 0
  %62 = load i8, i8* %61, align 8
  %63 = sext i8 %62 to i32
  %64 = icmp eq i32 %63, 101
  br i1 %64, label %65, label %73

65:                                               ; preds = %33
  %66 = load %struct.student*, %struct.student** %3, align 8
  %67 = getelementptr inbounds %struct.student, %struct.student* %66, i32 0, i32 6
  %68 = load %struct.student*, %struct.student** %67, align 8
  %69 = getelementptr inbounds %struct.student, %struct.student* %68, i32 0, i32 7
  store %struct.student* null, %struct.student** %69, align 8
  %70 = load %struct.student*, %struct.student** %3, align 8
  %71 = getelementptr inbounds %struct.student, %struct.student* %70, i32 0, i32 6
  %72 = load %struct.student*, %struct.student** %71, align 8
  store %struct.student* %72, %struct.student** %4, align 8
  br label %77

73:                                               ; preds = %33
  br label %74

74:                                               ; preds = %73
  %75 = load i32, i32* %5, align 4
  %76 = add nsw i32 %75, 1
  store i32 %76, i32* %5, align 4
  br label %30

77:                                               ; preds = %65, %30
  %78 = load %struct.student*, %struct.student** %4, align 8
  store %struct.student* %78, %struct.student** %3, align 8
  br label %79

79:                                               ; preds = %82, %77
  %80 = load %struct.student*, %struct.student** %3, align 8
  %81 = icmp ne %struct.student* %80, null
  br i1 %81, label %82, label %107

82:                                               ; preds = %79
  %83 = load %struct.student*, %struct.student** %3, align 8
  %84 = getelementptr inbounds %struct.student, %struct.student* %83, i32 0, i32 0
  %85 = getelementptr inbounds [20 x i8], [20 x i8]* %84, i64 0, i64 0
  %86 = load %struct.student*, %struct.student** %3, align 8
  %87 = getelementptr inbounds %struct.student, %struct.student* %86, i32 0, i32 1
  %88 = getelementptr inbounds [20 x i8], [20 x i8]* %87, i64 0, i64 0
  %89 = load %struct.student*, %struct.student** %3, align 8
  %90 = getelementptr inbounds %struct.student, %struct.student* %89, i32 0, i32 2
  %91 = load i8, i8* %90, align 8
  %92 = sext i8 %91 to i32
  %93 = load %struct.student*, %struct.student** %3, align 8
  %94 = getelementptr inbounds %struct.student, %struct.student* %93, i32 0, i32 3
  %95 = load i32, i32* %94, align 4
  %96 = load %struct.student*, %struct.student** %3, align 8
  %97 = getelementptr inbounds %struct.student, %struct.student* %96, i32 0, i32 4
  %98 = load float, float* %97, align 8
  %99 = fpext float %98 to double
  %100 = load %struct.student*, %struct.student** %3, align 8
  %101 = getelementptr inbounds %struct.student, %struct.student* %100, i32 0, i32 5
  %102 = getelementptr inbounds [20 x i8], [20 x i8]* %101, i64 0, i64 0
  %103 = call i32 (i8*, ...) @printf(i8* getelementptr inbounds ([19 x i8], [19 x i8]* @.str.3, i64 0, i64 0), i8* %85, i8* %88, i32 %92, i32 %95, double %99, i8* %102)
  %104 = load %struct.student*, %struct.student** %3, align 8
  %105 = getelementptr inbounds %struct.student, %struct.student* %104, i32 0, i32 6
  %106 = load %struct.student*, %struct.student** %105, align 8
  store %struct.student* %106, %struct.student** %3, align 8
  br label %79

107:                                              ; preds = %79
  %108 = load i32, i32* %1, align 4
  ret i32 %108
}

; Function Attrs: nounwind
declare dso_local noalias i8* @malloc(i64) #1

declare dso_local i32 @printf(i8*, ...) #2

; Function Attrs: noreturn nounwind
declare dso_local void @exit(i32) #3

declare dso_local i32 @__isoc99_scanf(i8*, ...) #2


!llvm.module.flags = !{!0}
!llvm.ident = !{!1}

!0 = !{i32 1, !"wchar_size", i32 4}
!1 = !{!"clang version 10.0.0-4ubuntu1 "}
